(lp0
S'poi'
p1
aS'salary'
p2
aS'total_payments'
p3
aS'exercised_stock_options'
p4
aS'bonus'
p5
aS'shared_receipt_with_poi'
p6
aS'total_stock_value'
p7
aS'deferred_income'
p8
aS'poi_from_percent'
p9
a.